target datalayout = "e-m:e-p270:32:32-p271:32:32-p272:64:64-i64:64-i128:128-f80:128-n8:16:32:64-S128"
target triple = "x86_64-pc-linux-gnu"

%struct.option = type { i32, i32, ptr, ptr, ptr, ptr, i32, ptr, i64, ptr, i64, ptr }

@__const.cmd_register.usage = private unnamed_addr constant [2 x ptr] [ptr @.str.141, ptr null], align 16

; Function Attrs: nounwind uwtable
define internal i32 @cmd_register(i32 noundef %0, ptr noundef %1) #0 {
  %3 = alloca i32, align 4
  %4 = alloca ptr, align 8
  %5 = alloca [1 x %struct.option], align 16
  %6 = alloca [2 x ptr], align 16
  store i32 %0, ptr %3, align 4, !tbaa !11
  store ptr %1, ptr %4, align 8, !tbaa !13
  call void @llvm.lifetime.start.p0(i64 88, ptr %5) #12
  call void @llvm.memset.p0.i64(ptr align 16 %5, i8 0, i64 88, i1 false)
  call void @llvm.lifetime.start.p0(i64 16, ptr %6) #12
  call void @llvm.memcpy.p0.p0.i64(ptr align 16 %6, ptr align 16 @__const.cmd_register.usage, i64 16, i1 false)
  %7 = load i32, ptr %3, align 4, !tbaa !11
  %8 = load ptr, ptr %4, align 8, !tbaa !13
  %9 = getelementptr inbounds [1 x %struct.option], ptr %5, i64 0, i64 0
  %10 = getelementptr inbounds [2 x ptr], ptr %6, i64 0, i64 0
  %11 = call i32 @parse_options(i32 noundef %7, ptr noundef %8, ptr noundef null, ptr noundef %9, ptr noundef %10, i32 noundef 0)
  store i32 %11, ptr %3, align 4, !tbaa !11
  %12 = load i32, ptr %3, align 4, !tbaa !11
  %13 = load ptr, ptr %4, align 8, !tbaa !13
  %14 = getelementptr inbounds [2 x ptr], ptr %6, i64 0, i64 0
  %15 = getelementptr inbounds [1 x %struct.option], ptr %5, i64 0, i64 0
  call void @setup_enlistment_directory(i32 noundef %12, ptr noundef %13, ptr noundef %14, ptr noundef %15, ptr noundef null)
  %16 = call i32 @register_dir()
  call void @llvm.lifetime.end.p0(i64 16, ptr %6) #12
  call void @llvm.lifetime.end.p0(i64 88, ptr %5) #12
  ret i32 %16
}