; Function Attrs: nounwind uwtable
define internal range(i32 -1, 1) i32 @cmd_register(i32 noundef %0, ptr noundef %1) #2 {
  %3 = alloca [1 x %struct.option], align 16
  %4 = alloca [2 x ptr], align 16
  call void @llvm.lifetime.start.p0(i64 88, ptr nonnull %3) #18
  call void @llvm.memset.p0.i64(ptr noundef nonnull align 16 dereferenceable(88) %3, i8 0, i64 88, i1 false)
  call void @llvm.lifetime.start.p0(i64 16, ptr nonnull %4) #18
  call void @llvm.memcpy.p0.p0.i64(ptr noundef nonnull align 16 dereferenceable(16) %4, ptr noundef nonnull align 16 dereferenceable(16) @__const.cmd_register.usage, i64 16, i1 false)
  %5 = call i32 @parse_options(i32 noundef %0, ptr noundef %1, ptr noundef null, ptr noundef nonnull %3, ptr noundef nonnull %4, i32 noundef 0) #18
  call fastcc void @setup_enlistment_directory(i32 noundef %5, ptr noundef %1, ptr noundef %4, ptr noundef %3, ptr noundef null)
  %6 = call fastcc i32 @register_dir()
  call void @llvm.lifetime.end.p0(i64 16, ptr nonnull %4) #18
  call void @llvm.lifetime.end.p0(i64 88, ptr nonnull %3) #18
  ret i32 %6
}